; Function Attrs: mustprogress uwtable
define hidden noundef zeroext i1 @_ZN3smt19conflict_resolution38process_justification_for_minimizationEPNS_13justificationE(ptr noundef nonnull align 8 dereferenceable(356) %0, ptr noundef %1) local_unnamed_addr #4 align 2 {
  %3 = getelementptr inbounds nuw i8, ptr %0, i64 328
  %4 = load ptr, ptr %3, align 8, !tbaa !18
  %.not.i = icmp eq ptr %4, null
  br i1 %.not.i, label %_ZN6vectorIN3sat7literalELb0EjE5resetEv.exit, label %5

5:                                                ; preds = %2
  %6 = getelementptr inbounds i8, ptr %4, i64 -4
  store i32 0, ptr %6, align 4, !tbaa !117
  br label %_ZN6vectorIN3sat7literalELb0EjE5resetEv.exit

_ZN6vectorIN3sat7literalELb0EjE5resetEv.exit:     ; preds = %2, %5
  %7 = getelementptr inbounds nuw i8, ptr %0, i64 176
  store ptr %3, ptr %7, align 8, !tbaa !140
  %8 = getelementptr inbounds nuw i8, ptr %1, i64 8
  %9 = load i8, ptr %8, align 8
  %10 = and i8 %9, 1
  %.not.i.i = icmp eq i8 %10, 0
  br i1 %.not.i.i, label %11, label %_ZN3smt19conflict_resolution27justification2literals_coreEPNS_13justificationER7svectorIN3sat7literalEjE.exit

11:                                               ; preds = %_ZN6vectorIN3sat7literalELb0EjE5resetEv.exit
  %12 = or disjoint i8 %9, 1
  store i8 %12, ptr %8, align 8
  %13 = getelementptr inbounds nuw i8, ptr %0, i64 88
  %14 = load ptr, ptr %13, align 8, !tbaa !25
  %15 = icmp eq ptr %14, null
  br i1 %15, label %22, label %16

16:                                               ; preds = %11
  %17 = getelementptr inbounds i8, ptr %14, i64 -4
  %18 = load i32, ptr %17, align 4, !tbaa !117
  %19 = getelementptr inbounds i8, ptr %14, i64 -8
  %20 = load i32, ptr %19, align 4, !tbaa !117
  %21 = icmp eq i32 %18, %20
  br i1 %21, label %22, label %_ZN6vectorIPN3smt13justificationELb0EjE9push_backERKS2_.exit.i.i

22:                                               ; preds = %16, %11
  tail call void @_ZN6vectorIPN3smt13justificationELb0EjE13expand_vectorEv(ptr noundef nonnull align 8 dereferenceable(8) %13)
  %.pre.i.i.i = load ptr, ptr %13, align 8, !tbaa !25
  %.phi.trans.insert.i.i.i = getelementptr inbounds i8, ptr %.pre.i.i.i, i64 -4
  %.pre2.i.i.i = load i32, ptr %.phi.trans.insert.i.i.i, align 4, !tbaa !117
  br label %_ZN6vectorIPN3smt13justificationELb0EjE9push_backERKS2_.exit.i.i

_ZN6vectorIPN3smt13justificationELb0EjE9push_backERKS2_.exit.i.i: ; preds = %22, %16
  %23 = phi i32 [ %.pre2.i.i.i, %22 ], [ %18, %16 ]
  %24 = phi ptr [ %.pre.i.i.i, %22 ], [ %14, %16 ]
  %25 = getelementptr inbounds i8, ptr %24, i64 -4
  %26 = zext i32 %23 to i64
  %27 = getelementptr inbounds nuw ptr, ptr %24, i64 %26
  store ptr %1, ptr %27, align 8, !tbaa !141
  %28 = add i32 %23, 1
  store i32 %28, ptr %25, align 4, !tbaa !117
  br label %_ZN3smt19conflict_resolution27justification2literals_coreEPNS_13justificationER7svectorIN3sat7literalEjE.exit

_ZN3smt19conflict_resolution27justification2literals_coreEPNS_13justificationER7svectorIN3sat7literalEjE.exit: ; preds = %_ZN6vectorIN3sat7literalELb0EjE5resetEv.exit, %_ZN6vectorIPN3smt13justificationELb0EjE9push_backERKS2_.exit.i.i
  tail call void @_ZN3smt19conflict_resolution22process_justificationsEv(ptr noundef nonnull align 8 dereferenceable(356) %0)
  %29 = load ptr, ptr %3, align 8, !tbaa !18
  %30 = icmp eq ptr %29, null
  br i1 %30, label %.critedge, label %_ZN6vectorIN3sat7literalELb0EjE3endEv.exit

_ZN6vectorIN3sat7literalELb0EjE3endEv.exit:       ; preds = %_ZN3smt19conflict_resolution27justification2literals_coreEPNS_13justificationER7svectorIN3sat7literalEjE.exit
  %31 = getelementptr inbounds i8, ptr %29, i64 -4
  %32 = load i32, ptr %31, align 4, !tbaa !117
  %33 = zext i32 %32 to i64
  %34 = getelementptr inbounds nuw %"class.sat::literal", ptr %29, i64 %33
  %.not18 = icmp eq i32 %32, 0
  br i1 %.not18, label %.critedge, label %.lr.ph

.lr.ph:                                           ; preds = %_ZN6vectorIN3sat7literalELb0EjE3endEv.exit, %.lr.ph
  %.01519 = phi ptr [ %36, %.lr.ph ], [ %29, %_ZN6vectorIN3sat7literalELb0EjE3endEv.exit ]
  %.sroa.02.0.copyload = load i32, ptr %.01519, align 4, !tbaa !117
  %35 = tail call noundef zeroext i1 @_ZN3smt19conflict_resolution35process_antecedent_for_minimizationEN3sat7literalE(ptr noundef nonnull align 8 dereferenceable(356) %0, i32 %.sroa.02.0.copyload)
  %36 = getelementptr inbounds nuw i8, ptr %.01519, i64 4
  %.not = icmp ne ptr %36, %34
  %or.cond.not = select i1 %35, i1 %.not, i1 false
  br i1 %or.cond.not, label %.lr.ph, label %.critedge

.critedge:                                        ; preds = %.lr.ph, %_ZN3smt19conflict_resolution27justification2literals_coreEPNS_13justificationER7svectorIN3sat7literalEjE.exit, %_ZN6vectorIN3sat7literalELb0EjE3endEv.exit
  %.not.lcssa = phi i1 [ true, %_ZN6vectorIN3sat7literalELb0EjE3endEv.exit ], [ true, %_ZN3smt19conflict_resolution27justification2literals_coreEPNS_13justificationER7svectorIN3sat7literalEjE.exit ], [ %35, %.lr.ph ]
  ret i1 %.not.lcssa
}